target datalayout = "e-m:e-p270:32:32-p271:32:32-p272:64:64-i64:64-i128:128-f80:128-n8:16:32:64-S128"
target triple = "x86_64-pc-linux-gnu"

%struct.ggml_tensor = type { i32, ptr, [4 x i64], [4 x i64], i32, [16 x i32], i32, [10 x ptr], ptr, i64, ptr, [64 x i8], ptr, [8 x i8] }

@.str.12 = private unnamed_addr constant [113 x i8] c"generated/home/dtcxzyw/WorkSpace/Projects/compilers/llvm-opt-benchmark/bench/llama.cpp/llama.cpp/ggml/src/ggml.c\00", align 1
@.str.13 = private unnamed_addr constant [23 x i8] c"GGML_ASSERT(%s) failed\00", align 1
@.str.23 = private unnamed_addr constant [10 x i8] c"%s (view)\00", align 1
@.str.25 = private unnamed_addr constant [22 x i8] c"a->ne[0] <= INT32_MAX\00", align 1
@.str.92 = private unnamed_addr constant [14 x i8] c"a->ne[0] >= k\00", align 1
@.str.463 = private unnamed_addr constant [118 x i8] c"generated/home/dtcxzyw/WorkSpace/Projects/compilers/llvm-opt-benchmark/bench/llama.cpp/llama.cpp/ggml/src/ggml-impl.h\00", align 1
@.str.464 = private unnamed_addr constant [15 x i8] c"tensor != NULL\00", align 1

; Function Attrs: nounwind uwtable
define internal void @ggml_set_op_params(ptr noundef %0, ptr noundef %1, i64 noundef %2) #5 {
  %4 = alloca ptr, align 8
  %5 = alloca ptr, align 8
  %6 = alloca i64, align 8
  store ptr %0, ptr %4, align 8, !tbaa !54
  store ptr %1, ptr %5, align 8, !tbaa !18
  store i64 %2, ptr %6, align 8, !tbaa !19
  %7 = load ptr, ptr %4, align 8, !tbaa !54
  %8 = icmp ne ptr %7, null
  br i1 %8, label %10, label %9

9:                                                ; preds = %3
  call void (ptr, i32, ptr, ...) @ggml_abort(ptr noundef @.str.463, i32 noundef 112, ptr noundef @.str.13, ptr noundef @.str.464) #18
  unreachable

10:                                               ; preds = %3
  %11 = load ptr, ptr %4, align 8, !tbaa !54
  %12 = getelementptr inbounds nuw %struct.ggml_tensor, ptr %11, i32 0, i32 5
  %13 = getelementptr inbounds [16 x i32], ptr %12, i64 0, i64 0
  %14 = load ptr, ptr %5, align 8, !tbaa !18
  %15 = load i64, ptr %6, align 8, !tbaa !19
  call void @llvm.memcpy.p0.p0.i64(ptr align 4 %13, ptr align 1 %14, i64 %15, i1 false)
  ret void
}

; Function Attrs: nounwind uwtable
define internal ptr @ggml_view_impl(ptr noundef %0, ptr noundef %1, i32 noundef %2, ptr noundef %3, i64 noundef %4) #5 {
  %6 = alloca ptr, align 8
  %7 = alloca ptr, align 8
  %8 = alloca i32, align 4
  %9 = alloca ptr, align 8
  %10 = alloca i64, align 8
  %11 = alloca ptr, align 8
  store ptr %0, ptr %6, align 8, !tbaa !48
  store ptr %1, ptr %7, align 8, !tbaa !54
  store i32 %2, ptr %8, align 4, !tbaa !8
  store ptr %3, ptr %9, align 8, !tbaa !88
  store i64 %4, ptr %10, align 8, !tbaa !19
  call void @llvm.lifetime.start.p0(i64 8, ptr %11) #14
  %12 = load ptr, ptr %6, align 8, !tbaa !48
  %13 = load ptr, ptr %7, align 8, !tbaa !54
  %14 = getelementptr inbounds nuw %struct.ggml_tensor, ptr %13, i32 0, i32 0
  %15 = load i32, ptr %14, align 8, !tbaa !56
  %16 = load i32, ptr %8, align 4, !tbaa !8
  %17 = load ptr, ptr %9, align 8, !tbaa !88
  %18 = load ptr, ptr %7, align 8, !tbaa !54
  %19 = load i64, ptr %10, align 8, !tbaa !19
  %20 = call ptr @ggml_new_tensor_impl(ptr noundef %12, i32 noundef %15, i32 noundef %16, ptr noundef %17, ptr noundef %18, i64 noundef %19)
  store ptr %20, ptr %11, align 8, !tbaa !54
  %21 = load ptr, ptr %11, align 8, !tbaa !54
  %22 = load ptr, ptr %7, align 8, !tbaa !54
  %23 = getelementptr inbounds nuw %struct.ggml_tensor, ptr %22, i32 0, i32 11
  %24 = getelementptr inbounds [64 x i8], ptr %23, i64 0, i64 0
  %25 = call ptr (ptr, ptr, ...) @ggml_format_name(ptr noundef %21, ptr noundef @.str.23, ptr noundef %24)
  %26 = load ptr, ptr %11, align 8, !tbaa !54
  call void @ggml_set_op_params(ptr noundef %26, ptr noundef %10, i64 noundef 8)
  %27 = load ptr, ptr %11, align 8, !tbaa !54
  %28 = getelementptr inbounds nuw %struct.ggml_tensor, ptr %27, i32 0, i32 4
  store i32 34, ptr %28, align 8, !tbaa !68
  %29 = load ptr, ptr %7, align 8, !tbaa !54
  %30 = load ptr, ptr %11, align 8, !tbaa !54
  %31 = getelementptr inbounds nuw %struct.ggml_tensor, ptr %30, i32 0, i32 7
  %32 = getelementptr inbounds [10 x ptr], ptr %31, i64 0, i64 0
  store ptr %29, ptr %32, align 8, !tbaa !54
  %33 = load ptr, ptr %11, align 8, !tbaa !54
  call void @llvm.lifetime.end.p0(i64 8, ptr %11) #14
  ret ptr %33
}

; Function Attrs: nounwind uwtable
define internal void @ggml_set_op_params_i32(ptr noundef %0, i32 noundef %1, i32 noundef %2) #5 {
  %4 = alloca ptr, align 8
  %5 = alloca i32, align 4
  %6 = alloca i32, align 4
  store ptr %0, ptr %4, align 8, !tbaa !54
  store i32 %1, ptr %5, align 4, !tbaa !8
  store i32 %2, ptr %6, align 4, !tbaa !8
  %7 = load i32, ptr %6, align 4, !tbaa !8
  %8 = load ptr, ptr %4, align 8, !tbaa !54
  %9 = getelementptr inbounds nuw %struct.ggml_tensor, ptr %8, i32 0, i32 5
  %10 = getelementptr inbounds [16 x i32], ptr %9, i64 0, i64 0
  %11 = load i32, ptr %5, align 4, !tbaa !8
  %12 = zext i32 %11 to i64
  %13 = getelementptr inbounds nuw i32, ptr %10, i64 %12
  store i32 %7, ptr %13, align 4, !tbaa !8
  ret void
}

; Function Attrs: nounwind uwtable
define ptr @ggml_new_tensor(ptr noundef %0, i32 noundef %1, i32 noundef %2, ptr noundef %3) #5 {
  %5 = alloca ptr, align 8
  %6 = alloca i32, align 4
  %7 = alloca i32, align 4
  %8 = alloca ptr, align 8
  store ptr %0, ptr %5, align 8, !tbaa !48
  store i32 %1, ptr %6, align 4, !tbaa !8
  store i32 %2, ptr %7, align 4, !tbaa !8
  store ptr %3, ptr %8, align 8, !tbaa !88
  %9 = load ptr, ptr %5, align 8, !tbaa !48
  %10 = load i32, ptr %6, align 4, !tbaa !8
  %11 = load i32, ptr %7, align 4, !tbaa !8
  %12 = load ptr, ptr %8, align 8, !tbaa !88
  %13 = call ptr @ggml_new_tensor_impl(ptr noundef %9, i32 noundef %10, i32 noundef %11, ptr noundef %12, ptr noundef null, i64 noundef 0)
  ret ptr %13
}

; Function Attrs: nounwind uwtable
define ptr @ggml_view_4d(ptr noundef %0, ptr noundef %1, i64 noundef %2, i64 noundef %3, i64 noundef %4, i64 noundef %5, i64 noundef %6, i64 noundef %7, i64 noundef %8, i64 noundef %9) #5 {
  %11 = alloca ptr, align 8
  %12 = alloca ptr, align 8
  %13 = alloca i64, align 8
  %14 = alloca i64, align 8
  %15 = alloca i64, align 8
  %16 = alloca i64, align 8
  %17 = alloca i64, align 8
  %18 = alloca i64, align 8
  %19 = alloca i64, align 8
  %20 = alloca i64, align 8
  %21 = alloca [4 x i64], align 16
  %22 = alloca ptr, align 8
  store ptr %0, ptr %11, align 8, !tbaa !48
  store ptr %1, ptr %12, align 8, !tbaa !54
  store i64 %2, ptr %13, align 8, !tbaa !19
  store i64 %3, ptr %14, align 8, !tbaa !19
  store i64 %4, ptr %15, align 8, !tbaa !19
  store i64 %5, ptr %16, align 8, !tbaa !19
  store i64 %6, ptr %17, align 8, !tbaa !19
  store i64 %7, ptr %18, align 8, !tbaa !19
  store i64 %8, ptr %19, align 8, !tbaa !19
  store i64 %9, ptr %20, align 8, !tbaa !19
  call void @llvm.lifetime.start.p0(i64 32, ptr %21) #14
  %23 = load i64, ptr %13, align 8, !tbaa !19
  store i64 %23, ptr %21, align 8, !tbaa !19
  %24 = getelementptr inbounds i64, ptr %21, i64 1
  %25 = load i64, ptr %14, align 8, !tbaa !19
  store i64 %25, ptr %24, align 8, !tbaa !19
  %26 = getelementptr inbounds i64, ptr %21, i64 2
  %27 = load i64, ptr %15, align 8, !tbaa !19
  store i64 %27, ptr %26, align 8, !tbaa !19
  %28 = getelementptr inbounds i64, ptr %21, i64 3
  %29 = load i64, ptr %16, align 8, !tbaa !19
  store i64 %29, ptr %28, align 8, !tbaa !19
  call void @llvm.lifetime.start.p0(i64 8, ptr %22) #14
  %30 = load ptr, ptr %11, align 8, !tbaa !48
  %31 = load ptr, ptr %12, align 8, !tbaa !54
  %32 = getelementptr inbounds [4 x i64], ptr %21, i64 0, i64 0
  %33 = load i64, ptr %20, align 8, !tbaa !19
  %34 = call ptr @ggml_view_impl(ptr noundef %30, ptr noundef %31, i32 noundef 4, ptr noundef %32, i64 noundef %33)
  store ptr %34, ptr %22, align 8, !tbaa !54
  %35 = load i64, ptr %17, align 8, !tbaa !19
  %36 = load ptr, ptr %22, align 8, !tbaa !54
  %37 = getelementptr inbounds nuw %struct.ggml_tensor, ptr %36, i32 0, i32 3
  %38 = getelementptr inbounds [4 x i64], ptr %37, i64 0, i64 1
  store i64 %35, ptr %38, align 8, !tbaa !19
  %39 = load i64, ptr %18, align 8, !tbaa !19
  %40 = load ptr, ptr %22, align 8, !tbaa !54
  %41 = getelementptr inbounds nuw %struct.ggml_tensor, ptr %40, i32 0, i32 3
  %42 = getelementptr inbounds [4 x i64], ptr %41, i64 0, i64 2
  store i64 %39, ptr %42, align 8, !tbaa !19
  %43 = load i64, ptr %19, align 8, !tbaa !19
  %44 = load ptr, ptr %22, align 8, !tbaa !54
  %45 = getelementptr inbounds nuw %struct.ggml_tensor, ptr %44, i32 0, i32 3
  %46 = getelementptr inbounds [4 x i64], ptr %45, i64 0, i64 3
  store i64 %43, ptr %46, align 8, !tbaa !19
  %47 = load ptr, ptr %22, align 8, !tbaa !54
  call void @llvm.lifetime.end.p0(i64 8, ptr %22) #14
  call void @llvm.lifetime.end.p0(i64 32, ptr %21) #14
  ret ptr %47
}

; Function Attrs: nounwind uwtable
define ptr @ggml_argsort(ptr noundef %0, ptr noundef %1, i32 noundef %2) #5 {
  %4 = alloca ptr, align 8
  %5 = alloca ptr, align 8
  %6 = alloca i32, align 4
  %7 = alloca ptr, align 8
  store ptr %0, ptr %4, align 8, !tbaa !48
  store ptr %1, ptr %5, align 8, !tbaa !54
  store i32 %2, ptr %6, align 4, !tbaa !8
  %8 = load ptr, ptr %5, align 8, !tbaa !54
  %9 = getelementptr inbounds nuw %struct.ggml_tensor, ptr %8, i32 0, i32 2
  %10 = getelementptr inbounds [4 x i64], ptr %9, i64 0, i64 0
  %11 = load i64, ptr %10, align 8, !tbaa !19
  %12 = icmp sle i64 %11, 2147483647
  br i1 %12, label %14, label %13

13:                                               ; preds = %3
  call void (ptr, i32, ptr, ...) @ggml_abort(ptr noundef @.str.12, i32 noundef 4279, ptr noundef @.str.13, ptr noundef @.str.25) #18
  unreachable

14:                                               ; preds = %3
  call void @llvm.lifetime.start.p0(i64 8, ptr %7) #14
  %15 = load ptr, ptr %4, align 8, !tbaa !48
  %16 = load ptr, ptr %5, align 8, !tbaa !54
  %17 = getelementptr inbounds nuw %struct.ggml_tensor, ptr %16, i32 0, i32 2
  %18 = getelementptr inbounds [4 x i64], ptr %17, i64 0, i64 0
  %19 = call ptr @ggml_new_tensor(ptr noundef %15, i32 noundef 26, i32 noundef 4, ptr noundef %18)
  store ptr %19, ptr %7, align 8, !tbaa !54
  %20 = load ptr, ptr %7, align 8, !tbaa !54
  %21 = load i32, ptr %6, align 4, !tbaa !8
  call void @ggml_set_op_params_i32(ptr noundef %20, i32 noundef 0, i32 noundef %21)
  %22 = load ptr, ptr %7, align 8, !tbaa !54
  %23 = getelementptr inbounds nuw %struct.ggml_tensor, ptr %22, i32 0, i32 4
  store i32 59, ptr %23, align 8, !tbaa !68
  %24 = load ptr, ptr %5, align 8, !tbaa !54
  %25 = load ptr, ptr %7, align 8, !tbaa !54
  %26 = getelementptr inbounds nuw %struct.ggml_tensor, ptr %25, i32 0, i32 7
  %27 = getelementptr inbounds [10 x ptr], ptr %26, i64 0, i64 0
  store ptr %24, ptr %27, align 8, !tbaa !54
  %28 = load ptr, ptr %7, align 8, !tbaa !54
  call void @llvm.lifetime.end.p0(i64 8, ptr %7) #14
  ret ptr %28
}

; Function Attrs: nounwind uwtable
define ptr @ggml_top_k(ptr noundef %0, ptr noundef %1, i32 noundef %2) #5 {
  %4 = alloca ptr, align 8
  %5 = alloca ptr, align 8
  %6 = alloca i32, align 4
  %7 = alloca ptr, align 8
  store ptr %0, ptr %4, align 8, !tbaa !48
  store ptr %1, ptr %5, align 8, !tbaa !54
  store i32 %2, ptr %6, align 4, !tbaa !8
  %8 = load ptr, ptr %5, align 8, !tbaa !54
  %9 = getelementptr inbounds nuw %struct.ggml_tensor, ptr %8, i32 0, i32 2
  %10 = getelementptr inbounds [4 x i64], ptr %9, i64 0, i64 0
  %11 = load i64, ptr %10, align 8, !tbaa !19
  %12 = load i32, ptr %6, align 4, !tbaa !8
  %13 = sext i32 %12 to i64
  %14 = icmp sge i64 %11, %13
  br i1 %14, label %16, label %15

15:                                               ; preds = %3
  call void (ptr, i32, ptr, ...) @ggml_abort(ptr noundef @.str.12, i32 noundef 4296, ptr noundef @.str.13, ptr noundef @.str.92) #18
  unreachable

16:                                               ; preds = %3
  call void @llvm.lifetime.start.p0(i64 8, ptr %7) #14
  %17 = load ptr, ptr %4, align 8, !tbaa !48
  %18 = load ptr, ptr %5, align 8, !tbaa !54
  %19 = call ptr @ggml_argsort(ptr noundef %17, ptr noundef %18, i32 noundef 1)
  store ptr %19, ptr %7, align 8, !tbaa !54
  %20 = load ptr, ptr %4, align 8, !tbaa !48
  %21 = load ptr, ptr %7, align 8, !tbaa !54
  %22 = load i32, ptr %6, align 4, !tbaa !8
  %23 = sext i32 %22 to i64
  %24 = load ptr, ptr %7, align 8, !tbaa !54
  %25 = getelementptr inbounds nuw %struct.ggml_tensor, ptr %24, i32 0, i32 2
  %26 = getelementptr inbounds [4 x i64], ptr %25, i64 0, i64 1
  %27 = load i64, ptr %26, align 8, !tbaa !19
  %28 = load ptr, ptr %7, align 8, !tbaa !54
  %29 = getelementptr inbounds nuw %struct.ggml_tensor, ptr %28, i32 0, i32 2
  %30 = getelementptr inbounds [4 x i64], ptr %29, i64 0, i64 2
  %31 = load i64, ptr %30, align 8, !tbaa !19
  %32 = load ptr, ptr %7, align 8, !tbaa !54
  %33 = getelementptr inbounds nuw %struct.ggml_tensor, ptr %32, i32 0, i32 2
  %34 = getelementptr inbounds [4 x i64], ptr %33, i64 0, i64 3
  %35 = load i64, ptr %34, align 8, !tbaa !19
  %36 = load ptr, ptr %7, align 8, !tbaa !54
  %37 = getelementptr inbounds nuw %struct.ggml_tensor, ptr %36, i32 0, i32 3
  %38 = getelementptr inbounds [4 x i64], ptr %37, i64 0, i64 1
  %39 = load i64, ptr %38, align 8, !tbaa !19
  %40 = load ptr, ptr %7, align 8, !tbaa !54
  %41 = getelementptr inbounds nuw %struct.ggml_tensor, ptr %40, i32 0, i32 3
  %42 = getelementptr inbounds [4 x i64], ptr %41, i64 0, i64 2
  %43 = load i64, ptr %42, align 8, !tbaa !19
  %44 = load ptr, ptr %7, align 8, !tbaa !54
  %45 = getelementptr inbounds nuw %struct.ggml_tensor, ptr %44, i32 0, i32 3
  %46 = getelementptr inbounds [4 x i64], ptr %45, i64 0, i64 3
  %47 = load i64, ptr %46, align 8, !tbaa !19
  %48 = call ptr @ggml_view_4d(ptr noundef %20, ptr noundef %21, i64 noundef %23, i64 noundef %27, i64 noundef %31, i64 noundef %35, i64 noundef %39, i64 noundef %43, i64 noundef %47, i64 noundef 0)
  store ptr %48, ptr %7, align 8, !tbaa !54
  %49 = load ptr, ptr %7, align 8, !tbaa !54
  call void @llvm.lifetime.end.p0(i64 8, ptr %7) #14
  ret ptr %49
}