; Function Attrs: nounwind uwtable
define noundef ptr @ggml_top_k(ptr noundef captures(none) %0, ptr noundef %1, i32 noundef %2) local_unnamed_addr #4 {
  %4 = alloca [4 x i64], align 16
  %5 = getelementptr inbounds nuw i8, ptr %1, i64 16
  %6 = load i64, ptr %5, align 8, !tbaa !39
  %7 = sext i32 %2 to i64
  %.not = icmp slt i64 %6, %7
  br i1 %.not, label %8, label %9

8:                                                ; preds = %3
  tail call void (ptr, i32, ptr, ...) @ggml_abort(ptr noundef nonnull @.str.12, i32 noundef 4296, ptr noundef nonnull @.str.13, ptr noundef nonnull @.str.92) #47
  unreachable

9:                                                ; preds = %3
  %10 = icmp slt i64 %6, 2147483648
  br i1 %10, label %ggml_argsort.exit, label %11

11:                                               ; preds = %9
  tail call void (ptr, i32, ptr, ...) @ggml_abort(ptr noundef nonnull @.str.12, i32 noundef 4279, ptr noundef nonnull @.str.13, ptr noundef nonnull @.str.25) #47
  unreachable

ggml_argsort.exit:                                ; preds = %9
  %12 = tail call fastcc noundef ptr @ggml_new_tensor_impl(ptr noundef %0, i32 noundef 26, i32 noundef 4, ptr noundef nonnull readonly %5, ptr noundef null, i64 noundef 0)
  %13 = getelementptr inbounds nuw i8, ptr %12, i64 84
  store i32 1, ptr %13, align 4, !tbaa !8
  %14 = getelementptr inbounds nuw i8, ptr %12, i64 80
  store i32 59, ptr %14, align 8, !tbaa !55
  %15 = getelementptr inbounds nuw i8, ptr %12, i64 152
  store ptr %1, ptr %15, align 8, !tbaa !81
  %16 = getelementptr inbounds nuw i8, ptr %12, i64 24
  %17 = load i64, ptr %16, align 8, !tbaa !39
  %18 = getelementptr inbounds nuw i8, ptr %12, i64 32
  %19 = load i64, ptr %18, align 8, !tbaa !39
  %20 = getelementptr inbounds nuw i8, ptr %12, i64 40
  %21 = load i64, ptr %20, align 8, !tbaa !39
  %22 = getelementptr inbounds nuw i8, ptr %12, i64 56
  %23 = load i64, ptr %22, align 8, !tbaa !39
  %24 = getelementptr inbounds nuw i8, ptr %12, i64 64
  %25 = load i64, ptr %24, align 8, !tbaa !39
  %26 = getelementptr inbounds nuw i8, ptr %12, i64 72
  %27 = load i64, ptr %26, align 8, !tbaa !39
  call void @llvm.lifetime.start.p0(i64 32, ptr nonnull %4) #42
  store i64 %7, ptr %4, align 16, !tbaa !39
  %28 = getelementptr inbounds nuw i8, ptr %4, i64 8
  store i64 %17, ptr %28, align 8, !tbaa !39
  %29 = getelementptr inbounds nuw i8, ptr %4, i64 16
  store i64 %19, ptr %29, align 16, !tbaa !39
  %30 = getelementptr inbounds nuw i8, ptr %4, i64 24
  store i64 %21, ptr %30, align 8, !tbaa !39
  %31 = load i32, ptr %12, align 8, !tbaa !40
  %32 = call fastcc ptr @ggml_new_tensor_impl(ptr noundef %0, i32 noundef %31, i32 noundef 4, ptr noundef nonnull readonly %4, ptr noundef nonnull %12, i64 noundef 0)
  %33 = getelementptr inbounds nuw i8, ptr %12, i64 256
  %34 = tail call ptr (ptr, ptr, ...) @ggml_format_name(ptr noundef %32, ptr noundef nonnull @.str.23, ptr noundef nonnull %33)
  %.not.i.i.i = icmp eq ptr %32, null
  br i1 %.not.i.i.i, label %35, label %ggml_view_4d.exit

35:                                               ; preds = %ggml_argsort.exit
  tail call void (ptr, i32, ptr, ...) @ggml_abort(ptr noundef nonnull @.str.463, i32 noundef 112, ptr noundef nonnull @.str.13, ptr noundef nonnull @.str.464) #47
  unreachable

ggml_view_4d.exit:                                ; preds = %ggml_argsort.exit
  %36 = getelementptr inbounds nuw i8, ptr %32, i64 84
  store i64 0, ptr %36, align 4
  %37 = getelementptr inbounds nuw i8, ptr %32, i64 80
  store i32 34, ptr %37, align 8, !tbaa !55
  %38 = getelementptr inbounds nuw i8, ptr %32, i64 152
  store ptr %12, ptr %38, align 8, !tbaa !81
  %39 = getelementptr inbounds nuw i8, ptr %32, i64 56
  store i64 %23, ptr %39, align 8, !tbaa !39
  %40 = getelementptr inbounds nuw i8, ptr %32, i64 64
  store i64 %25, ptr %40, align 8, !tbaa !39
  %41 = getelementptr inbounds nuw i8, ptr %32, i64 72
  store i64 %27, ptr %41, align 8, !tbaa !39
  call void @llvm.lifetime.end.p0(i64 32, ptr nonnull %4) #42
  ret ptr %32
}